(dp0
Vfullscreen_mode
p1
I0
sVorientation
p2
Vhorizontal
p3
sVfocus
p4
(lp5
I94010310146128
aI94010310000464
asVsticky
p6
I00
sVurgent
p7
I00
sVlast_split_layout
p8
Vsplith
p9
sVfloating
p10
Vauto_off
p11
sVborder
p12
Vpixel
p13
sVid
p14
I94010310120528
sVcurrent_border_width
p15
I-1
sVwindow_type
p16
NsVlayout
p17
Vsplith
p18
sVpercent
p19
F1.0
sVworkspace_layout
p20
Vdefault
p21
sVwindow
p22
NsVmarks
p23
(lp24
sVnodes
p25
(lp26
(dp27
Vfullscreen_mode
p28
I0
sVorientation
p29
Vnone
p30
sVfocus
p31
(lp32
I94010310000976
asVsticky
p33
I00
sVurgent
p34
I00
sVlast_split_layout
p35
Vsplith
p36
sVfloating
p37
Vauto_off
p38
sVborder
p39
Vpixel
p40
sVid
p41
I94010310000464
sVcurrent_border_width
p42
I-1
sVwindow_type
p43
NsVlayout
p44
Voutput
p45
sVpercent
p46
F0.5
sVworkspace_layout
p47
Vdefault
p48
sVwindow
p49
NsVmarks
p50
(lp51
sVnodes
p52
(lp53
(dp54
Vfullscreen_mode
p55
I0
sVorientation
p56
Vhorizontal
p57
sVfocus
p58
(lp59
I94010310001488
asVsticky
p60
I00
sVurgent
p61
I00
sVlast_split_layout
p62
Vsplith
p63
sVfloating
p64
Vauto_off
p65
sVborder
p66
Vpixel
p67
sVid
p68
I94010310000976
sVcurrent_border_width
p69
I-1
sVwindow_type
p70
NsVlayout
p71
Vsplith
p72
sVpercent
p73
F1.0
sVworkspace_layout
p74
Vdefault
p75
sVwindow
p76
NsVmarks
p77
(lp78
sVnodes
p79
(lp80
(dp81
Vfullscreen_mode
p82
I1
sVorientation
p83
Vnone
p84
sVfocus
p85
(lp86
sVsticky
p87
I00
sVurgent
p88
I00
sVnum
p89
I-1
sVlast_split_layout
p90
Vsplith
p91
sVfloating
p92
Vauto_off
p93
sVborder
p94
Vpixel
p95
sVid
p96
I94010310001488
sVcurrent_border_width
p97
I-1
sVwindow_type
p98
NsVlayout
p99
Vsplith
p100
sVpercent
p101
F1.0
sVworkspace_layout
p102
Vdefault
p103
sVwindow
p104
NsVmarks
p105
(lp106
sVnodes
p107
(lp108
sVtype
p109
Vworkspace
p110
sVdeco_rect
p111
(dp112
Vy
p113
I0
sVx
p114
I0
sVheight
p115
I0
sVwidth
p116
I0
ssVswallows
p117
(lp118
sVfocused
p119
I00
sVscratchpad_state
p120
Vnone
p121
sVrect
p122
(dp123
g113
I0
sg114
I0
sVheight
p124
I0
sVwidth
p125
I0
ssVwindow_rect
p126
(dp127
g113
I0
sg114
I0
sVheight
p128
I0
sVwidth
p129
I0
ssVname
p130
V__i3_scratch
p131
sVgeometry
p132
(dp133
g113
I0
sg114
I0
sVheight
p134
I0
sVwidth
p135
I0
ssVgaps
p136
(dp137
Vright
p138
I0
sVouter
p139
I0
sVbottom
p140
I0
sVtop
p141
I0
sVinner
p142
I0
sVleft
p143
I0
ssVfloating_nodes
p144
(lp145
sVoutput
p146
V__i3
p147
sasVtype
p148
Vcon
p149
sVdeco_rect
p150
(dp151
g113
I0
sg114
I0
sVheight
p152
I0
sVwidth
p153
I0
ssVswallows
p154
(lp155
sVfocused
p156
I00
sVscratchpad_state
p157
Vnone
p158
sVrect
p159
(dp160
g113
I0
sg114
I0
sVheight
p161
I0
sVwidth
p162
I0
ssVwindow_rect
p163
(dp164
g113
I0
sg114
I0
sVheight
p165
I0
sVwidth
p166
I0
ssVname
p167
Vcontent
p168
sVgeometry
p169
(dp170
g113
I0
sg114
I0
sVheight
p171
I0
sVwidth
p172
I0
ssVfloating_nodes
p173
(lp174
sVoutput
p175
V__i3
p176
sasVtype
p177
Voutput
p178
sVdeco_rect
p179
(dp180
g113
I0
sg114
I0
sVheight
p181
I0
sVwidth
p182
I0
ssVswallows
p183
(lp184
sVfocused
p185
I00
sVscratchpad_state
p186
Vnone
p187
sVrect
p188
(dp189
g113
I0
sg114
I0
sVheight
p190
I1080
sVwidth
p191
I1920
ssVwindow_rect
p192
(dp193
g113
I0
sg114
I0
sVheight
p194
I0
sVwidth
p195
I0
ssVname
p196
V__i3
p197
sVgeometry
p198
(dp199
g113
I0
sg114
I0
sVheight
p200
I0
sVwidth
p201
I0
ssVfloating_nodes
p202
(lp203
sa(dp204
Vfullscreen_mode
p205
I0
sVorientation
p206
Vnone
p207
sVfocus
p208
(lp209
I94010310149600
aI94010310146608
aI94010310164560
asVsticky
p210
I00
sVurgent
p211
I00
sVlast_split_layout
p212
Vsplith
p213
sVfloating
p214
Vauto_off
p215
sVborder
p216
Vpixel
p217
sVid
p218
I94010310146128
sVcurrent_border_width
p219
I-1
sVwindow_type
p220
NsVlayout
p221
Voutput
p222
sVpercent
p223
F0.5
sVworkspace_layout
p224
Vdefault
p225
sVwindow
p226
NsVmarks
p227
(lp228
sVnodes
p229
(lp230
(dp231
Vfullscreen_mode
p232
I0
sVorientation
p233
Vnone
p234
sVfocus
p235
(lp236
sVsticky
p237
I00
sVurgent
p238
I00
sVlast_split_layout
p239
Vsplith
p240
sVfloating
p241
Vauto_off
p242
sVborder
p243
Vpixel
p244
sVid
p245
I94010310146608
sVcurrent_border_width
p246
I-1
sVwindow_type
p247
NsVlayout
p248
Vdockarea
p249
sVpercent
p250
F0.3333333333333333
sVworkspace_layout
p251
Vdefault
p252
sVwindow
p253
NsVmarks
p254
(lp255
sVnodes
p256
(lp257
sVtype
p258
Vdockarea
p259
sVdeco_rect
p260
(dp261
g113
I0
sg114
I0
sVheight
p262
I0
sVwidth
p263
I0
ssVswallows
p264
(lp265
(dp266
Vdock
p267
I2
sVinsert_where
p268
I2
sasVfocused
p269
I00
sVscratchpad_state
p270
Vnone
p271
sVrect
p272
(dp273
g113
I0
sg114
I0
sVheight
p274
I0
sVwidth
p275
I1920
ssVwindow_rect
p276
(dp277
g113
I0
sg114
I0
sVheight
p278
I0
sVwidth
p279
I0
ssVname
p280
Vtopdock
p281
sVgeometry
p282
(dp283
g113
I0
sg114
I0
sVheight
p284
I0
sVwidth
p285
I0
ssVfloating_nodes
p286
(lp287
sVoutput
p288
VHDMI-A-0
p289
sa(dp290
Vfullscreen_mode
p291
I0
sVorientation
p292
Vhorizontal
p293
sVfocus
p294
(lp295
I94010310150080
aI94010310495984
aI94010310557856
aI94010310450304
asVsticky
p296
I00
sVurgent
p297
I00
sVlast_split_layout
p298
Vsplith
p299
sVfloating
p300
Vauto_off
p301
sVborder
p302
Vpixel
p303
sVid
p304
I94010310149600
sVcurrent_border_width
p305
I-1
sVwindow_type
p306
NsVlayout
p307
Vsplith
p308
sVpercent
p309
F0.3333333333333333
sVworkspace_layout
p310
Vdefault
p311
sVwindow
p312
NsVmarks
p313
(lp314
sVnodes
p315
(lp316
(dp317
Vfullscreen_mode
p318
I1
sVorientation
p319
Vhorizontal
p320
sVfocus
p321
(lp322
I94010310659088
aI94010310390336
aI94010310153552
asVsticky
p323
I00
sVurgent
p324
I00
sVnum
p325
I1
sVlast_split_layout
p326
Vsplith
p327
sVfloating
p328
Vauto_off
p329
sVborder
p330
Vpixel
p331
sVid
p332
I94010310150080
sVcurrent_border_width
p333
I-1
sVwindow_type
p334
NsVlayout
p335
Vsplith
p336
sVpercent
p337
F1.0
sVworkspace_layout
p338
Vdefault
p339
sVwindow
p340
NsVmarks
p341
(lp342
sVnodes
p343
(lp344
(dp345
Vwindow_properties
p346
(dp347
Vinstance
p348
Vgoogle-chrome
p349
sVtransient_for
p350
NsVwindow_role
p351
Vbrowser
p352
sVclass
p353
VGoogle-chrome
p354
sVtitle
p355
V\u041c\u0435\u0441\u0441\u0435\u043d\u0434\u0436\u0435\u0440 - Google Chrome
p356
ssVfullscreen_mode
p357
I0
sVorientation
p358
Vnone
p359
sVprocess
p360
S'google-chrome'
p361
sVfocus
p362
(lp363
sVsticky
p364
I00
sVurgent
p365
I00
sVlast_split_layout
p366
Vsplith
p367
sVfloating
p368
Vauto_off
p369
sVborder
p370
Vpixel
p371
sVid
p372
I94010310390336
sVcurrent_border_width
p373
I2
sVwindow_type
p374
Vnormal
p375
sVlayout
p376
Vsplith
p377
sVpercent
p378
F1.0
sVworkspace_layout
p379
Vdefault
p380
sVwindow
p381
I10485763
sVmarks
p382
(lp383
sVnodes
p384
(lp385
sVtype
p386
Vcon
p387
sVdeco_rect
p388
(dp389
g113
I0
sg114
I0
sVheight
p390
I0
sVwidth
p391
I0
ssVswallows
p392
(lp393
sVfocused
p394
I00
sVscratchpad_state
p395
Vnone
p396
sVrect
p397
(dp398
g113
I36
sg114
I36
sVheight
p399
I1008
sVwidth
p400
I1848
ssVwindow_rect
p401
(dp402
g113
I0
sg114
I0
sVheight
p403
I1008
sVwidth
p404
I1848
ssVname
p405
V\u041c\u0435\u0441\u0441\u0435\u043d\u0434\u0436\u0435\u0440 - Google Chrome
p406
sVgeometry
p407
(dp408
g113
I38
sg114
I971
sVheight
p409
I1004
sVwidth
p410
I911
ssVfloating_nodes
p411
(lp412
sVoutput
p413
VHDMI-A-0
p414
sasVtype
p415
Vworkspace
p416
sVdeco_rect
p417
(dp418
g113
I0
sg114
I0
sVheight
p419
I0
sVwidth
p420
I0
ssVswallows
p421
(lp422
sVfocused
p423
I00
sVscratchpad_state
p424
Vnone
p425
sVrect
p426
(dp427
g113
I0
sg114
I0
sVheight
p428
I1080
sVwidth
p429
I1920
ssVwindow_rect
p430
(dp431
g113
I0
sg114
I0
sVheight
p432
I0
sVwidth
p433
I0
ssVname
p434
V1: www
p435
sVgeometry
p436
(dp437
g113
I0
sg114
I0
sVheight
p438
I0
sVwidth
p439
I0
ssVgaps
p440
(dp441
Vright
p442
I0
sVouter
p443
I0
sVbottom
p444
I0
sVtop
p445
I0
sVinner
p446
I0
sVleft
p447
I0
ssVfloating_nodes
p448
(lp449
(dp450
Vfullscreen_mode
p451
I0
sVorientation
p452
Vhorizontal
p453
sVfocus
p454
(lp455
I94010310154032
asVsticky
p456
I00
sVurgent
p457
I00
sVlast_split_layout
p458
Vsplith
p459
sVfloating
p460
Vauto_off
p461
sVborder
p462
Vpixel
p463
sVid
p464
I94010310153552
sVcurrent_border_width
p465
I-1
sVwindow_type
p466
NsVlayout
p467
Vsplith
p468
sVpercent
p469
NsVworkspace_layout
p470
Vdefault
p471
sVwindow
p472
NsVmarks
p473
(lp474
sVnodes
p475
(lp476
(dp477
Vwindow_properties
p478
(dp479
Vinstance
p480
Vlxrandr
p481
sVtransient_for
p482
NsVclass
p483
VLxrandr
p484
sVtitle
p485
VDisplay Settings
p486
ssVfullscreen_mode
p487
I0
sVorientation
p488
Vnone
p489
sVfocus
p490
(lp491
sVsticky
p492
I00
sVurgent
p493
I00
sVlast_split_layout
p494
Vsplith
p495
sVfloating
p496
Vauto_on
p497
sVborder
p498
Vpixel
p499
sVid
p500
I94010310154032
sVcurrent_border_width
p501
I2
sVwindow_type
p502
Vdialog
p503
sVlayout
p504
Vsplith
p505
sVpercent
p506
F1.0
sVworkspace_layout
p507
Vdefault
p508
sVwindow
p509
I31457283
sVmarks
p510
(lp511
sVnodes
p512
(lp513
sVtype
p514
Vcon
p515
sVdeco_rect
p516
(dp517
g113
I0
sg114
I0
sVheight
p518
I0
sVwidth
p519
I0
ssVswallows
p520
(lp521
sVfocused
p522
I00
sVscratchpad_state
p523
Vnone
p524
sVrect
p525
(dp526
g113
I408
sg114
I2531
sVheight
p527
I264
sVwidth
p528
I699
ssVwindow_rect
p529
(dp530
g113
I2
sg114
I2
sVheight
p531
I260
sVwidth
p532
I695
ssVname
p533
VDisplay Settings
p534
sVgeometry
p535
(dp536
g113
I0
sg114
I0
sVheight
p537
I260
sVwidth
p538
I695
ssVfloating_nodes
p539
(lp540
sVoutput
p541
VHDMI-A-0
p542
sasVtype
p543
Vfloating_con
p544
sVdeco_rect
p545
(dp546
g113
I0
sg114
I0
sVheight
p547
I0
sVwidth
p548
I0
ssVswallows
p549
(lp550
sVfocused
p551
I00
sVscratchpad_state
p552
Vnone
p553
sVrect
p554
(dp555
g113
I408
sg114
I2531
sVheight
p556
I264
sVwidth
p557
I699
ssVwindow_rect
p558
(dp559
g113
I0
sg114
I0
sVheight
p560
I0
sVwidth
p561
I0
ssVname
p562
NsVgeometry
p563
(dp564
g113
I0
sg114
I0
sVheight
p565
I0
sVwidth
p566
I0
ssVfloating_nodes
p567
(lp568
sVoutput
p569
VHDMI-A-0
p570
sa(dp571
Vfullscreen_mode
p572
I0
sVorientation
p573
Vhorizontal
p574
sVfocus
p575
(lp576
I94010310651792
asVsticky
p577
I00
sVurgent
p578
I00
sVlast_split_layout
p579
Vsplith
p580
sVfloating
p581
Vauto_off
p582
sVborder
p583
Vpixel
p584
sVid
p585
I94010310659088
sVcurrent_border_width
p586
I-1
sVwindow_type
p587
NsVlayout
p588
Vsplith
p589
sVpercent
p590
NsVworkspace_layout
p591
Vdefault
p592
sVwindow
p593
NsVmarks
p594
(lp595
sVnodes
p596
(lp597
(dp598
Vwindow_properties
p599
(dp600
Vinstance
p601
Vurxvt
p602
sVtransient_for
p603
NsVclass
p604
VURxvt
p605
sVtitle
p606
Vi3session save
p607
ssVfullscreen_mode
p608
I0
sVorientation
p609
Vnone
p610
sVfocus
p611
(lp612
sVsticky
p613
I00
sVurgent
p614
I00
sVlast_split_layout
p615
Vsplith
p616
sVfloating
p617
Vuser_on
p618
sVborder
p619
Vpixel
p620
sVid
p621
I94010310651792
sVcurrent_border_width
p622
I2
sVwindow_type
p623
Vunknown
p624
sVlayout
p625
Vsplith
p626
sVpercent
p627
F1.0
sVworkspace_layout
p628
Vdefault
p629
sVwindow
p630
I88080393
sVmarks
p631
(lp632
sVnodes
p633
(lp634
sVtype
p635
Vcon
p636
sVdeco_rect
p637
(dp638
g113
I0
sg114
I0
sVheight
p639
I0
sVwidth
p640
I0
ssVswallows
p641
(lp642
sVfocused
p643
I01
sVscratchpad_state
p644
Vnone
p645
sVrect
p646
(dp647
g113
I332
sg114
I636
sVheight
p648
I416
sVwidth
p649
I648
ssVwindow_rect
p650
(dp651
g113
I2
sg114
I2
sVheight
p652
I412
sVwidth
p653
I644
ssVname
p654
Vi3session save
p655
sVgeometry
p656
(dp657
g113
I0
sg114
I0
sVheight
p658
I412
sVwidth
p659
I644
ssVfloating_nodes
p660
(lp661
sVoutput
p662
VHDMI-A-0
p663
sasVtype
p664
Vfloating_con
p665
sVdeco_rect
p666
(dp667
g113
I0
sg114
I0
sVheight
p668
I0
sVwidth
p669
I0
ssVswallows
p670
(lp671
sVfocused
p672
I00
sVscratchpad_state
p673
Vnone
p674
sVrect
p675
(dp676
g113
I332
sg114
I636
sVheight
p677
I416
sVwidth
p678
I648
ssVwindow_rect
p679
(dp680
g113
I0
sg114
I0
sVheight
p681
I0
sVwidth
p682
I0
ssVname
p683
NsVgeometry
p684
(dp685
g113
I0
sg114
I0
sVheight
p686
I0
sVwidth
p687
I0
ssVfloating_nodes
p688
(lp689
sVoutput
p690
VHDMI-A-0
p691
sasVoutput
p692
VHDMI-A-0
p693
sa(dp694
Vfullscreen_mode
p695
I0
sVorientation
p696
Vhorizontal
p697
sVfocus
p698
(lp699
I94010310362144
aI94010310451648
asVsticky
p700
I00
sVurgent
p701
I01
sVnum
p702
I2
sVlast_split_layout
p703
Vsplith
p704
sVfloating
p705
Vauto_off
p706
sVborder
p707
Vpixel
p708
sVid
p709
I94010310450304
sVcurrent_border_width
p710
I-1
sVwindow_type
p711
NsVlayout
p712
Vsplith
p713
sVpercent
p714
NsVworkspace_layout
p715
Vdefault
p716
sVwindow
p717
NsVmarks
p718
(lp719
sVnodes
p720
(lp721
(dp722
Vwindow_properties
p723
(dp724
Vinstance
p725
VTelegram
p726
sVtransient_for
p727
NsVclass
p728
VTelegramDesktop
p729
sVtitle
p730
VTelegram
p731
ssVfullscreen_mode
p732
I0
sVorientation
p733
Vnone
p734
sg360
S'telegramdesktop'
p735
sVfocus
p736
(lp737
sVsticky
p738
I00
sVurgent
p739
I00
sVlast_split_layout
p740
Vsplith
p741
sVfloating
p742
Vauto_off
p743
sVborder
p744
Vnone
p745
sVid
p746
I94010310362144
sVcurrent_border_width
p747
I2
sVwindow_type
p748
Vnormal
p749
sVlayout
p750
Vsplith
p751
sVpercent
p752
F0.5
sVworkspace_layout
p753
Vdefault
p754
sVwindow
p755
I48234502
sVmarks
p756
(lp757
sVnodes
p758
(lp759
sVtype
p760
Vcon
p761
sVdeco_rect
p762
(dp763
g113
I0
sg114
I0
sVheight
p764
I0
sVwidth
p765
I0
ssVswallows
p766
(lp767
sVfocused
p768
I00
sVscratchpad_state
p769
Vnone
p770
sVrect
p771
(dp772
g113
I36
sg114
I36
sVheight
p773
I1008
sVwidth
p774
I915
ssVwindow_rect
p775
(dp776
g113
I0
sg114
I0
sVheight
p777
I1008
sVwidth
p778
I915
ssVname
p779
VTelegram
p780
sVgeometry
p781
(dp782
g113
I36
sg114
I36
sVheight
p783
I1008
sVwidth
p784
I817
ssVfloating_nodes
p785
(lp786
sVoutput
p787
VHDMI-A-0
p788
sa(dp789
Vwindow_properties
p790
(dp791
Vinstance
p792
Vslack
p793
sVtransient_for
p794
NsVwindow_role
p795
Vbrowser-window
p796
sVclass
p797
VSlack
p798
sVtitle
p799
VSlack | * annotators_disease_projects | Insilico Medicine
p800
ssVfullscreen_mode
p801
I0
sVorientation
p802
Vnone
p803
sg360
S'slack'
p804
sVfocus
p805
(lp806
sVsticky
p807
I00
sVurgent
p808
I01
sVlast_split_layout
p809
Vsplith
p810
sVfloating
p811
Vauto_off
p812
sVborder
p813
Vpixel
p814
sVid
p815
I94010310451648
sVcurrent_border_width
p816
I2
sVwindow_type
p817
Vnormal
p818
sVlayout
p819
Vsplith
p820
sVpercent
p821
F0.5
sVworkspace_layout
p822
Vdefault
p823
sVwindow
p824
I54525955
sVmarks
p825
(lp826
sVnodes
p827
(lp828
sVtype
p829
Vcon
p830
sVdeco_rect
p831
(dp832
g113
I0
sg114
I0
sVheight
p833
I0
sVwidth
p834
I0
ssVswallows
p835
(lp836
sVfocused
p837
I00
sVscratchpad_state
p838
Vnone
p839
sVrect
p840
(dp841
g113
I36
sg114
I969
sVheight
p842
I1008
sVwidth
p843
I915
ssVwindow_rect
p844
(dp845
g113
I2
sg114
I2
sVheight
p846
I1004
sVwidth
p847
I911
ssVname
p848
VSlack | * annotators_disease_projects | Insilico Medicine
p849
sVgeometry
p850
(dp851
g113
I38
sg114
I873
sVheight
p852
I1004
sVwidth
p853
I1009
ssVfloating_nodes
p854
(lp855
sVoutput
p856
VHDMI-A-0
p857
sasVtype
p858
Vworkspace
p859
sVdeco_rect
p860
(dp861
g113
I0
sg114
I0
sVheight
p862
I0
sVwidth
p863
I0
ssVswallows
p864
(lp865
sVfocused
p866
I00
sVscratchpad_state
p867
Vnone
p868
sVrect
p869
(dp870
g113
I0
sg114
I0
sVheight
p871
I1080
sVwidth
p872
I1920
ssVwindow_rect
p873
(dp874
g113
I0
sg114
I0
sVheight
p875
I0
sVwidth
p876
I0
ssVname
p877
V2: mes
p878
sVgeometry
p879
(dp880
g113
I0
sg114
I0
sVheight
p881
I0
sVwidth
p882
I0
ssVgaps
p883
(dp884
Vright
p885
I0
sVouter
p886
I0
sVbottom
p887
I0
sVtop
p888
I0
sVinner
p889
I0
sVleft
p890
I0
ssVfloating_nodes
p891
(lp892
sVoutput
p893
VHDMI-A-0
p894
sa(dp895
Vfullscreen_mode
p896
I0
sVorientation
p897
Vhorizontal
p898
sVfocus
p899
(lp900
I94010310600304
asVsticky
p901
I00
sVurgent
p902
I00
sVnum
p903
I5
sVlast_split_layout
p904
Vsplith
p905
sVfloating
p906
Vauto_off
p907
sVborder
p908
Vpixel
p909
sVid
p910
I94010310557856
sVcurrent_border_width
p911
I-1
sVwindow_type
p912
NsVlayout
p913
Vsplith
p914
sVpercent
p915
NsVworkspace_layout
p916
Vdefault
p917
sVwindow
p918
NsVmarks
p919
(lp920
sVnodes
p921
(lp922
(dp923
Vfullscreen_mode
p924
I0
sVorientation
p925
Vhorizontal
p926
sVfocus
p927
(lp928
I94010310582464
aI94010310111392
aI94010310111872
aI94010310512192
aI94010310518272
asVsticky
p929
I00
sVurgent
p930
I00
sVlast_split_layout
p931
Vsplith
p932
sVfloating
p933
Vauto_off
p934
sVborder
p935
Vpixel
p936
sVid
p937
I94010310600304
sVcurrent_border_width
p938
I-1
sVwindow_type
p939
NsVlayout
p940
Vtabbed
p941
sVpercent
p942
NsVworkspace_layout
p943
Vdefault
p944
sVwindow
p945
NsVmarks
p946
(lp947
sVnodes
p948
(lp949
(dp950
Vwindow_properties
p951
(dp952
Vinstance
p953
Vorg.pwmt.zathura
p954
sVtransient_for
p955
NsVclass
p956
VZathura
p957
sVtitle
p958
V/home/klim/Downloads/Telegram Desktop/Calculating_Free_Energy_Differences_Using_Perturbation_Theory.pdf
p959
ssVfullscreen_mode
p960
I0
sVorientation
p961
Vnone
p962
sg360
S'zathura'
p963
sVfocus
p964
(lp965
sVsticky
p966
I00
sVurgent
p967
I00
sVlast_split_layout
p968
Vsplith
p969
sVfloating
p970
Vauto_off
p971
sVborder
p972
Vpixel
p973
sVid
p974
I94010310582464
sVcurrent_border_width
p975
I2
sVwindow_type
p976
Vnormal
p977
sVlayout
p978
Vsplith
p979
sVpercent
p980
F0.2
sVworkspace_layout
p981
Vdefault
p982
sVwindow
p983
I77594627
sVmarks
p984
(lp985
sVnodes
p986
(lp987
sVtype
p988
Vcon
p989
sVdeco_rect
p990
(dp991
g113
I0
sg114
I0
sVheight
p992
I14
sVwidth
p993
I369
ssVswallows
p994
(lp995
sVfocused
p996
I00
sVscratchpad_state
p997
Vnone
p998
sVrect
p999
(dp1000
g113
I50
sg114
I36
sVheight
p1001
I994
sVwidth
p1002
I1848
ssVwindow_rect
p1003
(dp1004
g113
I0
sg114
I0
sVheight
p1005
I994
sVwidth
p1006
I1848
ssVname
p1007
V/home/klim/Downloads/Telegram Desktop/Calculating_Free_Energy_Differences_Using_Perturbation_Theory.pdf
p1008
sVgeometry
p1009
(dp1010
g113
I0
sg114
I0
sVheight
p1011
I600
sVwidth
p1012
I800
ssVfloating_nodes
p1013
(lp1014
sVoutput
p1015
VHDMI-A-0
p1016
sa(dp1017
Vwindow_properties
p1018
(dp1019
Vinstance
p1020
Vorg.pwmt.zathura
p1021
sVtransient_for
p1022
NsVclass
p1023
VZathura
p1024
sVtitle
p1025
V/home/klim/Downloads/Telegram Desktop/Relative_Binding_Affinity_Prediction_of_Charge-Cha.pdf
p1026
ssVfullscreen_mode
p1027
I0
sVorientation
p1028
Vnone
p1029
sg360
S'zathura'
p1030
sVfocus
p1031
(lp1032
sVsticky
p1033
I00
sVurgent
p1034
I00
sVlast_split_layout
p1035
Vsplith
p1036
sVfloating
p1037
Vauto_off
p1038
sVborder
p1039
Vpixel
p1040
sVid
p1041
I94010310518272
sVcurrent_border_width
p1042
I2
sVwindow_type
p1043
Vnormal
p1044
sVlayout
p1045
Vsplith
p1046
sVpercent
p1047
F0.2
sVworkspace_layout
p1048
Vdefault
p1049
sVwindow
p1050
I85983235
sVmarks
p1051
(lp1052
sVnodes
p1053
(lp1054
sVtype
p1055
Vcon
p1056
sVdeco_rect
p1057
(dp1058
g113
I0
sg114
I369
sVheight
p1059
I14
sVwidth
p1060
I369
ssVswallows
p1061
(lp1062
sVfocused
p1063
I00
sVscratchpad_state
p1064
Vnone
p1065
sVrect
p1066
(dp1067
g113
I50
sg114
I36
sVheight
p1068
I994
sVwidth
p1069
I1848
ssVwindow_rect
p1070
(dp1071
g113
I0
sg114
I0
sVheight
p1072
I994
sVwidth
p1073
I1848
ssVname
p1074
V/home/klim/Downloads/Telegram Desktop/Relative_Binding_Affinity_Prediction_of_Charge-Cha.pdf
p1075
sVgeometry
p1076
(dp1077
g113
I0
sg114
I0
sVheight
p1078
I600
sVwidth
p1079
I800
ssVfloating_nodes
p1080
(lp1081
sVoutput
p1082
VHDMI-A-0
p1083
sa(dp1084
Vwindow_properties
p1085
(dp1086
Vinstance
p1087
Vorg.pwmt.zathura
p1088
sVtransient_for
p1089
NsVclass
p1090
VZathura
p1091
sVtitle
p1092
V/home/klim/Downloads/Telegram Desktop/Nonequilibrium_Methods_for_Equilibrium_Free_Energy_Calculations.pdf
p1093
ssVfullscreen_mode
p1094
I0
sVorientation
p1095
Vnone
p1096
sg360
S'zathura'
p1097
sVfocus
p1098
(lp1099
sVsticky
p1100
I00
sVurgent
p1101
I00
sVlast_split_layout
p1102
Vsplith
p1103
sVfloating
p1104
Vauto_off
p1105
sVborder
p1106
Vpixel
p1107
sVid
p1108
I94010310512192
sVcurrent_border_width
p1109
I2
sVwindow_type
p1110
Vnormal
p1111
sVlayout
p1112
Vsplith
p1113
sVpercent
p1114
F0.2
sVworkspace_layout
p1115
Vdefault
p1116
sVwindow
p1117
I83886083
sVmarks
p1118
(lp1119
sVnodes
p1120
(lp1121
sVtype
p1122
Vcon
p1123
sVdeco_rect
p1124
(dp1125
g113
I0
sg114
I738
sVheight
p1126
I14
sVwidth
p1127
I369
ssVswallows
p1128
(lp1129
sVfocused
p1130
I00
sVscratchpad_state
p1131
Vnone
p1132
sVrect
p1133
(dp1134
g113
I50
sg114
I36
sVheight
p1135
I994
sVwidth
p1136
I1848
ssVwindow_rect
p1137
(dp1138
g113
I0
sg114
I0
sVheight
p1139
I994
sVwidth
p1140
I1848
ssVname
p1141
V/home/klim/Downloads/Telegram Desktop/Nonequilibrium_Methods_for_Equilibrium_Free_Energy_Calculations.pdf
p1142
sVgeometry
p1143
(dp1144
g113
I0
sg114
I0
sVheight
p1145
I600
sVwidth
p1146
I800
ssVfloating_nodes
p1147
(lp1148
sVoutput
p1149
VHDMI-A-0
p1150
sa(dp1151
Vwindow_properties
p1152
(dp1153
Vinstance
p1154
Vorg.pwmt.zathura
p1155
sVtransient_for
p1156
NsVclass
p1157
VZathura
p1158
sVtitle
p1159
V/home/klim/Downloads/Telegram Desktop/Good_Practices_in_Free_Energy_Calculations_A_Pohorille_C_Jarzynski.pdf
p1160
ssVfullscreen_mode
p1161
I0
sVorientation
p1162
Vnone
p1163
sg360
S'zathura'
p1164
sVfocus
p1165
(lp1166
sVsticky
p1167
I00
sVurgent
p1168
I00
sVlast_split_layout
p1169
Vsplith
p1170
sVfloating
p1171
Vauto_off
p1172
sVborder
p1173
Vpixel
p1174
sVid
p1175
I94010310111872
sVcurrent_border_width
p1176
I2
sVwindow_type
p1177
Vnormal
p1178
sVlayout
p1179
Vsplith
p1180
sVpercent
p1181
F0.2
sVworkspace_layout
p1182
Vdefault
p1183
sVwindow
p1184
I81788931
sVmarks
p1185
(lp1186
sVnodes
p1187
(lp1188
sVtype
p1189
Vcon
p1190
sVdeco_rect
p1191
(dp1192
g113
I0
sg114
I1107
sVheight
p1193
I14
sVwidth
p1194
I369
ssVswallows
p1195
(lp1196
sVfocused
p1197
I00
sVscratchpad_state
p1198
Vnone
p1199
sVrect
p1200
(dp1201
g113
I50
sg114
I36
sVheight
p1202
I994
sVwidth
p1203
I1848
ssVwindow_rect
p1204
(dp1205
g113
I0
sg114
I0
sVheight
p1206
I994
sVwidth
p1207
I1848
ssVname
p1208
V/home/klim/Downloads/Telegram Desktop/Good_Practices_in_Free_Energy_Calculations_A_Pohorille_C_Jarzynski.pdf
p1209
sVgeometry
p1210
(dp1211
g113
I0
sg114
I0
sVheight
p1212
I600
sVwidth
p1213
I800
ssVfloating_nodes
p1214
(lp1215
sVoutput
p1216
VHDMI-A-0
p1217
sa(dp1218
Vwindow_properties
p1219
(dp1220
Vinstance
p1221
Vorg.pwmt.zathura
p1222
sVtransient_for
p1223
NsVclass
p1224
VZathura
p1225
sVtitle
p1226
V/home/klim/Downloads/Telegram Desktop/Calculation of Binding Free Energies Gapsys 2015.pdf
p1227
ssVfullscreen_mode
p1228
I0
sVorientation
p1229
Vnone
p1230
sg360
S'zathura'
p1231
sVfocus
p1232
(lp1233
sVsticky
p1234
I00
sVurgent
p1235
I00
sVlast_split_layout
p1236
Vsplith
p1237
sVfloating
p1238
Vauto_off
p1239
sVborder
p1240
Vpixel
p1241
sVid
p1242
I94010310111392
sVcurrent_border_width
p1243
I2
sVwindow_type
p1244
Vnormal
p1245
sVlayout
p1246
Vsplith
p1247
sVpercent
p1248
F0.2
sVworkspace_layout
p1249
Vdefault
p1250
sVwindow
p1251
I79691779
sVmarks
p1252
(lp1253
sVnodes
p1254
(lp1255
sVtype
p1256
Vcon
p1257
sVdeco_rect
p1258
(dp1259
g113
I0
sg114
I1476
sVheight
p1260
I14
sVwidth
p1261
I372
ssVswallows
p1262
(lp1263
sVfocused
p1264
I00
sVscratchpad_state
p1265
Vnone
p1266
sVrect
p1267
(dp1268
g113
I50
sg114
I36
sVheight
p1269
I994
sVwidth
p1270
I1848
ssVwindow_rect
p1271
(dp1272
g113
I0
sg114
I0
sVheight
p1273
I994
sVwidth
p1274
I1848
ssVname
p1275
V/home/klim/Downloads/Telegram Desktop/Calculation of Binding Free Energies Gapsys 2015.pdf
p1276
sVgeometry
p1277
(dp1278
g113
I0
sg114
I0
sVheight
p1279
I600
sVwidth
p1280
I800
ssVfloating_nodes
p1281
(lp1282
sVoutput
p1283
VHDMI-A-0
p1284
sasVtype
p1285
Vcon
p1286
sVdeco_rect
p1287
(dp1288
g113
I0
sg114
I0
sVheight
p1289
I0
sVwidth
p1290
I0
ssVswallows
p1291
(lp1292
sVfocused
p1293
I00
sVscratchpad_state
p1294
Vnone
p1295
sVrect
p1296
(dp1297
g113
I36
sg114
I36
sVheight
p1298
I1008
sVwidth
p1299
I1848
ssVwindow_rect
p1300
(dp1301
g113
I0
sg114
I0
sVheight
p1302
I0
sVwidth
p1303
I0
ssVname
p1304
NsVgeometry
p1305
(dp1306
g113
I0
sg114
I0
sVheight
p1307
I0
sVwidth
p1308
I0
ssVfloating_nodes
p1309
(lp1310
sVoutput
p1311
VHDMI-A-0
p1312
sasVtype
p1313
Vworkspace
p1314
sVdeco_rect
p1315
(dp1316
g113
I0
sg114
I0
sVheight
p1317
I0
sVwidth
p1318
I0
ssVswallows
p1319
(lp1320
sVfocused
p1321
I00
sVscratchpad_state
p1322
Vnone
p1323
sVrect
p1324
(dp1325
g113
I0
sg114
I0
sVheight
p1326
I1080
sVwidth
p1327
I1920
ssVwindow_rect
p1328
(dp1329
g113
I0
sg114
I0
sVheight
p1330
I0
sVwidth
p1331
I0
ssVname
p1332
V5: pdf
p1333
sVgeometry
p1334
(dp1335
g113
I0
sg114
I0
sVheight
p1336
I0
sVwidth
p1337
I0
ssVgaps
p1338
(dp1339
Vright
p1340
I0
sVouter
p1341
I0
sVbottom
p1342
I0
sVtop
p1343
I0
sVinner
p1344
I0
sVleft
p1345
I0
ssVfloating_nodes
p1346
(lp1347
sVoutput
p1348
VHDMI-A-0
p1349
sa(dp1350
Vfullscreen_mode
p1351
I0
sVorientation
p1352
Vhorizontal
p1353
sVfocus
p1354
(lp1355
I94010310452128
asVsticky
p1356
I00
sVurgent
p1357
I00
sVnum
p1358
I7
sVlast_split_layout
p1359
Vsplith
p1360
sVfloating
p1361
Vauto_off
p1362
sVborder
p1363
Vpixel
p1364
sVid
p1365
I94010310495984
sVcurrent_border_width
p1366
I-1
sVwindow_type
p1367
NsVlayout
p1368
Vsplith
p1369
sVpercent
p1370
NsVworkspace_layout
p1371
Vdefault
p1372
sVwindow
p1373
NsVmarks
p1374
(lp1375
sVnodes
p1376
(lp1377
(dp1378
Vwindow_properties
p1379
(dp1380
Vinstance
p1381
Vspotify
p1382
sVtransient_for
p1383
NsVclass
p1384
VSpotify
p1385
sVtitle
p1386
VSpotify
p1387
ssVfullscreen_mode
p1388
I0
sVorientation
p1389
Vnone
p1390
sg360
S'spotify'
p1391
sVfocus
p1392
(lp1393
sVsticky
p1394
I00
sVurgent
p1395
I00
sVlast_split_layout
p1396
Vsplith
p1397
sVfloating
p1398
Vauto_off
p1399
sVborder
p1400
Vpixel
p1401
sVid
p1402
I94010310452128
sVcurrent_border_width
p1403
I2
sVwindow_type
p1404
Vunknown
p1405
sVlayout
p1406
Vsplith
p1407
sVpercent
p1408
F1.0
sVworkspace_layout
p1409
Vdefault
p1410
sVwindow
p1411
I65011714
sVmarks
p1412
(lp1413
sVnodes
p1414
(lp1415
sVtype
p1416
Vcon
p1417
sVdeco_rect
p1418
(dp1419
g113
I0
sg114
I0
sVheight
p1420
I0
sVwidth
p1421
I0
ssVswallows
p1422
(lp1423
sVfocused
p1424
I00
sVscratchpad_state
p1425
Vnone
p1426
sVrect
p1427
(dp1428
g113
I36
sg114
I36
sVheight
p1429
I1008
sVwidth
p1430
I1848
ssVwindow_rect
p1431
(dp1432
g113
I0
sg114
I0
sVheight
p1433
I1008
sVwidth
p1434
I1848
ssVname
p1435
VSpotify
p1436
sVgeometry
p1437
(dp1438
g113
I0
sg114
I0
sVheight
p1439
I600
sVwidth
p1440
I800
ssVfloating_nodes
p1441
(lp1442
sVoutput
p1443
VHDMI-A-0
p1444
sasVtype
p1445
Vworkspace
p1446
sVdeco_rect
p1447
(dp1448
g113
I0
sg114
I0
sVheight
p1449
I0
sVwidth
p1450
I0
ssVswallows
p1451
(lp1452
sVfocused
p1453
I00
sVscratchpad_state
p1454
Vnone
p1455
sVrect
p1456
(dp1457
g113
I0
sg114
I0
sVheight
p1458
I1080
sVwidth
p1459
I1920
ssVwindow_rect
p1460
(dp1461
g113
I0
sg114
I0
sVheight
p1462
I0
sVwidth
p1463
I0
ssVname
p1464
V7: mus
p1465
sVgeometry
p1466
(dp1467
g113
I0
sg114
I0
sVheight
p1468
I0
sVwidth
p1469
I0
ssVgaps
p1470
(dp1471
Vright
p1472
I0
sVouter
p1473
I0
sVbottom
p1474
I0
sVtop
p1475
I0
sVinner
p1476
I0
sVleft
p1477
I0
ssVfloating_nodes
p1478
(lp1479
sVoutput
p1480
VHDMI-A-0
p1481
sasVtype
p1482
Vcon
p1483
sVdeco_rect
p1484
(dp1485
g113
I0
sg114
I0
sVheight
p1486
I0
sVwidth
p1487
I0
ssVswallows
p1488
(lp1489
sVfocused
p1490
I00
sVscratchpad_state
p1491
Vnone
p1492
sVrect
p1493
(dp1494
g113
I0
sg114
I0
sVheight
p1495
I1080
sVwidth
p1496
I1920
ssVwindow_rect
p1497
(dp1498
g113
I0
sg114
I0
sVheight
p1499
I0
sVwidth
p1500
I0
ssVname
p1501
Vcontent
p1502
sVgeometry
p1503
(dp1504
g113
I0
sg114
I0
sVheight
p1505
I0
sVwidth
p1506
I0
ssVfloating_nodes
p1507
(lp1508
sVoutput
p1509
VHDMI-A-0
p1510
sa(dp1511
Vfullscreen_mode
p1512
I0
sVorientation
p1513
Vnone
p1514
sVfocus
p1515
(lp1516
sVsticky
p1517
I00
sVurgent
p1518
I00
sVlast_split_layout
p1519
Vsplith
p1520
sVfloating
p1521
Vauto_off
p1522
sVborder
p1523
Vpixel
p1524
sVid
p1525
I94010310164560
sVcurrent_border_width
p1526
I-1
sVwindow_type
p1527
NsVlayout
p1528
Vdockarea
p1529
sVpercent
p1530
F0.3333333333333333
sVworkspace_layout
p1531
Vdefault
p1532
sVwindow
p1533
NsVmarks
p1534
(lp1535
sVnodes
p1536
(lp1537
sVtype
p1538
Vdockarea
p1539
sVdeco_rect
p1540
(dp1541
g113
I0
sg114
I0
sVheight
p1542
I0
sVwidth
p1543
I0
ssVswallows
p1544
(lp1545
(dp1546
Vdock
p1547
I3
sVinsert_where
p1548
I2
sasVfocused
p1549
I00
sVscratchpad_state
p1550
Vnone
p1551
sVrect
p1552
(dp1553
g113
I1080
sg114
I0
sVheight
p1554
I0
sVwidth
p1555
I1920
ssVwindow_rect
p1556
(dp1557
g113
I0
sg114
I0
sVheight
p1558
I0
sVwidth
p1559
I0
ssVname
p1560
Vbottomdock
p1561
sVgeometry
p1562
(dp1563
g113
I0
sg114
I0
sVheight
p1564
I0
sVwidth
p1565
I0
ssVfloating_nodes
p1566
(lp1567
sVoutput
p1568
VHDMI-A-0
p1569
sasVtype
p1570
Voutput
p1571
sVdeco_rect
p1572
(dp1573
g113
I0
sg114
I0
sVheight
p1574
I0
sVwidth
p1575
I0
ssVswallows
p1576
(lp1577
sVfocused
p1578
I00
sVscratchpad_state
p1579
Vnone
p1580
sVrect
p1581
(dp1582
g113
I0
sg114
I0
sVheight
p1583
I1080
sVwidth
p1584
I1920
ssVwindow_rect
p1585
(dp1586
g113
I0
sg114
I0
sVheight
p1587
I0
sVwidth
p1588
I0
ssVname
p1589
VHDMI-A-0
p1590
sVgeometry
p1591
(dp1592
g113
I0
sg114
I0
sVheight
p1593
I0
sVwidth
p1594
I0
ssVfloating_nodes
p1595
(lp1596
sasVtype
p1597
Vroot
p1598
sVdeco_rect
p1599
(dp1600
g113
I0
sg114
I0
sVheight
p1601
I0
sVwidth
p1602
I0
ssVswallows
p1603
(lp1604
sVfocused
p1605
I00
sVscratchpad_state
p1606
Vnone
p1607
sVrect
p1608
(dp1609
g113
I0
sg114
I0
sVheight
p1610
I1080
sVwidth
p1611
I1920
ssVwindow_rect
p1612
(dp1613
g113
I0
sg114
I0
sVheight
p1614
I0
sVwidth
p1615
I0
ssVname
p1616
Vroot
p1617
sVgeometry
p1618
(dp1619
g113
I0
sg114
I0
sVheight
p1620
I0
sVwidth
p1621
I0
ssVfloating_nodes
p1622
(lp1623
s.